Certificate:
    Data:
        Version: 3 (0x2)
        Serial Number: 2 (0x2)
    Signature Algorithm: sha256WithRSAEncryption
        Issuer: C=ES, ST=Murcia, O=UMU, OU=sstt9721, CN=ca.sstt9721.org
        Validity
            Not Before: Apr  9 12:19:09 2019 GMT
            Not After : Apr  8 12:19:09 2020 GMT
        Subject: C=ES, ST=Murcia, O=UMU, OU=sstt9721, CN=JoseMiguel48839721A/emailAddress=usuario1_9721@sstt9721.org
        Subject Public Key Info:
            Public Key Algorithm: rsaEncryption
                Public-Key: (2048 bit)
                Modulus:
                    00:bf:e3:48:31:88:e8:80:e3:5c:f0:73:00:74:b3:
                    a8:e9:37:21:cf:2d:62:6b:44:69:d9:52:5d:57:53:
                    0c:ff:91:f7:8b:89:96:78:7b:25:14:ff:5d:5e:2f:
                    4d:23:31:4b:af:0c:7e:11:6a:eb:87:c5:9f:bb:20:
                    c8:d6:1c:27:bb:f0:f7:28:57:f9:c3:c8:b3:04:01:
                    5e:0d:63:1d:79:bf:af:84:ef:ba:b0:b7:5f:67:53:
                    9a:d1:0a:b2:0a:35:20:fc:20:c1:3b:74:a8:1d:c6:
                    2f:01:dc:25:e5:6a:4e:31:de:0d:ae:ee:70:2a:0c:
                    e5:c4:95:bf:b2:d3:fa:dc:82:4f:7d:96:46:d4:a3:
                    93:67:8a:4c:4c:b1:b2:f1:b2:80:e7:fd:34:13:67:
                    0f:b9:79:58:77:ed:3c:8c:99:12:cc:01:77:93:e8:
                    cd:67:5d:67:e8:89:3b:b8:47:17:8e:c0:fb:30:2b:
                    11:df:47:72:80:ee:e8:6d:97:ec:5c:8b:b6:eb:8f:
                    b1:76:40:8f:0c:bf:f3:39:42:b8:84:f5:e3:52:da:
                    d4:ae:db:63:75:0f:67:36:db:da:ab:b8:99:c4:1c:
                    7f:fa:c3:38:e2:53:d7:30:01:10:bf:b2:87:8d:21:
                    08:ae:fc:04:f3:55:22:a5:20:dc:98:e0:0d:57:a3:
                    9e:49
                Exponent: 65537 (0x10001)
        X509v3 extensions:
            X509v3 Basic Constraints: 
                CA:FALSE
            Netscape Comment: 
                OpenSSL Generated Certificate
            X509v3 Subject Key Identifier: 
                BD:73:34:79:08:C4:AE:85:A8:B3:E3:90:CF:29:09:28:92:09:A4:0B
            X509v3 Authority Key Identifier: 
                keyid:32:59:6C:68:61:3A:78:54:05:A1:A9:84:D7:96:F2:8B:86:4E:87:A2

    Signature Algorithm: sha256WithRSAEncryption
         02:32:6b:d2:bb:15:b1:11:8f:80:d3:5f:6e:08:d6:fc:54:0e:
         7d:62:b4:92:31:21:42:c0:f9:7b:4d:79:ac:56:f1:16:74:33:
         e1:9d:29:58:a2:32:6f:f9:8b:10:9d:bb:3a:d5:de:3f:0b:96:
         29:97:8c:b4:21:9e:37:79:de:52:38:a4:3b:fb:e1:3e:1f:06:
         81:de:d2:f2:38:07:d7:b9:82:d8:87:d0:da:06:51:b5:66:77:
         6e:cc:1b:4e:61:2f:4b:ec:b4:9c:54:17:37:30:af:3f:cb:5a:
         4e:d1:dd:7d:0e:59:b5:dd:f6:cd:a4:16:5f:d0:47:1f:fe:ed:
         7f:a8:00:b1:84:62:74:6c:c6:94:f6:db:da:bb:b0:92:5c:cc:
         41:67:41:53:4c:9e:8e:3f:62:56:ee:4b:9f:98:58:63:5f:a4:
         20:7b:cf:1e:b5:cd:13:1f:6a:80:70:af:7c:39:9a:c9:12:63:
         6a:75:e6:2d:71:b8:eb:24:5b:16:b9:cf:97:ca:24:3f:1a:5f:
         27:21:c0:36:3b:ff:13:a4:da:85:48:8c:b2:5f:26:b8:83:a0:
         d9:ec:49:f3:fb:79:d9:dd:e9:f5:33:db:dc:af:67:cc:f7:26:
         31:4f:4c:51:da:f9:80:7c:3f:45:14:0f:8f:9a:e0:6d:5a:12:
         9f:b6:7a:f2
-----BEGIN CERTIFICATE-----
MIID2DCCAsCgAwIBAgIBAjANBgkqhkiG9w0BAQsFADBZMQswCQYDVQQGEwJFUzEP
MA0GA1UECAwGTXVyY2lhMQwwCgYDVQQKDANVTVUxETAPBgNVBAsMCHNzdHQ5NzIx
MRgwFgYDVQQDDA9jYS5zc3R0OTcyMS5vcmcwHhcNMTkwNDA5MTIxOTA5WhcNMjAw
NDA4MTIxOTA5WjCBiDELMAkGA1UEBhMCRVMxDzANBgNVBAgMBk11cmNpYTEMMAoG
A1UECgwDVU1VMREwDwYDVQQLDAhzc3R0OTcyMTEcMBoGA1UEAwwTSm9zZU1pZ3Vl
bDQ4ODM5NzIxQTEpMCcGCSqGSIb3DQEJARYadXN1YXJpbzFfOTcyMUBzc3R0OTcy
MS5vcmcwggEiMA0GCSqGSIb3DQEBAQUAA4IBDwAwggEKAoIBAQC/40gxiOiA41zw
cwB0s6jpNyHPLWJrRGnZUl1XUwz/kfeLiZZ4eyUU/11eL00jMUuvDH4RauuHxZ+7
IMjWHCe78PcoV/nDyLMEAV4NYx15v6+E77qwt19nU5rRCrIKNSD8IME7dKgdxi8B
3CXlak4x3g2u7nAqDOXElb+y0/rcgk99lkbUo5NnikxMsbLxsoDn/TQTZw+5eVh3
7TyMmRLMAXeT6M1nXWfoiTu4RxeOwPswKxHfR3KA7uhtl+xci7brj7F2QI8Mv/M5
QriE9eNS2tSu22N1D2c229qruJnEHH/6wzjiU9cwARC/soeNIQiu/ATzVSKlINyY
4A1Xo55JAgMBAAGjezB5MAkGA1UdEwQCMAAwLAYJYIZIAYb4QgENBB8WHU9wZW5T
U0wgR2VuZXJhdGVkIENlcnRpZmljYXRlMB0GA1UdDgQWBBS9czR5CMSuhaiz45DP
KQkokgmkCzAfBgNVHSMEGDAWgBQyWWxoYTp4VAWhqYTXlvKLhk6HojANBgkqhkiG
9w0BAQsFAAOCAQEAAjJr0rsVsRGPgNNfbgjW/FQOfWK0kjEhQsD5e015rFbxFnQz
4Z0pWKIyb/mLEJ27OtXePwuWKZeMtCGeN3neUjikO/vhPh8Ggd7S8jgH17mC2IfQ
2gZRtWZ3bswbTmEvS+y0nFQXNzCvP8taTtHdfQ5Ztd32zaQWX9BHH/7tf6gAsYRi
dGzGlPbb2ruwklzMQWdBU0yejj9iVu5Ln5hYY1+kIHvPHrXNEx9qgHCvfDmayRJj
anXmLXG46yRbFrnPl8okPxpfJyHANjv/E6TahUiMsl8muIOg2exJ8/t52d3p9TPb
3K9nzPcmMU9MUdr5gHw/RRQPj5rgbVoSn7Z68g==
-----END CERTIFICATE-----
