Certificate:
    Data:
        Version: 3 (0x2)
        Serial Number: 1 (0x1)
    Signature Algorithm: sha256WithRSAEncryption
        Issuer: C=ES, ST=Murcia, O=UMU, OU=sstt9721, CN=ca.sstt9721.org
        Validity
            Not Before: Apr  9 12:04:50 2019 GMT
            Not After : Apr  8 12:04:50 2021 GMT
        Subject: C=ES, ST=Murcia, O=UMU, OU=sstt9721, CN=www.sstt9721.org
        Subject Public Key Info:
            Public Key Algorithm: rsaEncryption
                Public-Key: (2048 bit)
                Modulus:
                    00:9e:6d:40:ae:1d:48:e6:c3:ea:48:ad:0a:18:1a:
                    bc:8f:c8:5a:2b:cf:45:a4:13:89:74:d1:43:27:d4:
                    43:c3:6f:82:66:3d:c9:bd:7e:e4:d3:01:fe:69:7c:
                    af:77:d0:b1:84:87:50:7d:6e:a3:ed:5b:61:22:13:
                    e5:75:7c:09:56:9e:7a:5a:1c:be:a0:d4:56:3c:7a:
                    e5:d2:a3:4c:9b:c8:94:36:f6:31:fc:08:12:04:90:
                    f7:42:34:d6:5e:a0:8d:1d:b4:18:f7:a6:fc:70:de:
                    b9:28:69:a2:c3:65:36:45:9c:a6:8e:72:c3:da:ab:
                    37:d4:aa:29:38:2a:7e:cd:d4:c6:f3:6f:65:28:db:
                    12:e2:99:57:c3:16:0d:e0:ad:07:8e:9d:eb:75:55:
                    0a:fc:d8:ae:d1:0a:a9:8c:73:c3:15:85:95:fe:20:
                    99:1b:d3:9d:04:b2:c9:13:0b:f8:09:ce:41:01:ba:
                    39:dd:ef:29:d8:a1:4e:f5:97:b8:99:86:4c:01:8b:
                    a5:4c:44:16:41:c4:68:7d:3e:21:05:1c:03:6d:39:
                    63:bc:59:87:b7:f0:3f:7c:e0:b0:f3:c9:b9:16:87:
                    ed:f6:78:3e:be:c3:0f:d3:cb:90:07:89:70:b3:5c:
                    2b:ce:24:bf:1e:25:ea:4f:e3:2e:15:f7:9a:3d:6c:
                    d6:d1
                Exponent: 65537 (0x10001)
        X509v3 extensions:
            X509v3 Basic Constraints: 
                CA:FALSE
            Netscape Comment: 
                OpenSSL Generated Certificate
            X509v3 Subject Key Identifier: 
                5F:E2:D3:40:A8:0F:D7:AE:77:72:54:B9:86:5C:0D:25:07:50:7F:A2
            X509v3 Authority Key Identifier: 
                keyid:32:59:6C:68:61:3A:78:54:05:A1:A9:84:D7:96:F2:8B:86:4E:87:A2

    Signature Algorithm: sha256WithRSAEncryption
         6b:98:92:54:08:67:e7:2d:76:25:ac:61:c7:f9:5a:a2:22:60:
         a6:e4:9a:cd:11:11:5c:53:a2:b8:9d:c9:1b:00:60:dc:d2:cd:
         55:a1:44:f4:dc:8e:dd:a1:86:9f:85:ad:f3:31:f7:18:04:cd:
         aa:ca:81:c7:7e:a7:33:ac:d4:8b:7f:5c:22:3c:a8:f8:cf:8e:
         a6:84:7c:81:1e:ec:65:6e:26:bf:89:37:18:30:be:ae:72:08:
         42:a5:4a:e6:6d:b9:7c:1d:cc:3a:e1:00:c0:34:9e:57:d5:8a:
         33:b5:50:7a:b1:c9:8a:7e:54:a4:49:3e:6a:7d:f5:53:ea:b9:
         6a:8f:7d:44:27:8b:64:e0:a8:a5:e8:62:6b:7d:ec:e4:f6:0d:
         f2:44:45:2d:0e:86:25:27:80:04:85:99:03:26:fd:b2:6a:ea:
         72:15:7b:91:a7:ed:f5:e8:0a:4f:3f:23:e2:14:e0:c6:d6:fd:
         ec:59:1c:99:1a:c6:a2:ec:00:52:a9:be:86:f4:7a:46:39:35:
         48:2d:32:17:97:94:fd:5b:46:bd:a7:a5:33:27:44:39:ae:dc:
         2c:3c:c9:87:73:4e:66:bf:ba:85:a0:68:75:f0:c6:80:e0:20:
         e4:ed:b5:61:88:e4:68:c2:b0:09:6b:66:68:8e:b6:6f:44:b4:
         3c:d3:26:dc
-----BEGIN CERTIFICATE-----
MIIDqTCCApGgAwIBAgIBATANBgkqhkiG9w0BAQsFADBZMQswCQYDVQQGEwJFUzEP
MA0GA1UECAwGTXVyY2lhMQwwCgYDVQQKDANVTVUxETAPBgNVBAsMCHNzdHQ5NzIx
MRgwFgYDVQQDDA9jYS5zc3R0OTcyMS5vcmcwHhcNMTkwNDA5MTIwNDUwWhcNMjEw
NDA4MTIwNDUwWjBaMQswCQYDVQQGEwJFUzEPMA0GA1UECAwGTXVyY2lhMQwwCgYD
VQQKDANVTVUxETAPBgNVBAsMCHNzdHQ5NzIxMRkwFwYDVQQDDBB3d3cuc3N0dDk3
MjEub3JnMIIBIjANBgkqhkiG9w0BAQEFAAOCAQ8AMIIBCgKCAQEAnm1Arh1I5sPq
SK0KGBq8j8haK89FpBOJdNFDJ9RDw2+CZj3JvX7k0wH+aXyvd9CxhIdQfW6j7Vth
IhPldXwJVp56Why+oNRWPHrl0qNMm8iUNvYx/AgSBJD3QjTWXqCNHbQY96b8cN65
KGmiw2U2RZymjnLD2qs31KopOCp+zdTG829lKNsS4plXwxYN4K0Hjp3rdVUK/Niu
0QqpjHPDFYWV/iCZG9OdBLLJEwv4Cc5BAbo53e8p2KFO9Ze4mYZMAYulTEQWQcRo
fT4hBRwDbTljvFmHt/A/fOCw88m5Foft9ng+vsMP08uQB4lws1wrziS/HiXqT+Mu
FfeaPWzW0QIDAQABo3sweTAJBgNVHRMEAjAAMCwGCWCGSAGG+EIBDQQfFh1PcGVu
U1NMIEdlbmVyYXRlZCBDZXJ0aWZpY2F0ZTAdBgNVHQ4EFgQUX+LTQKgP1653clS5
hlwNJQdQf6IwHwYDVR0jBBgwFoAUMllsaGE6eFQFoamE15byi4ZOh6IwDQYJKoZI
hvcNAQELBQADggEBAGuYklQIZ+ctdiWsYcf5WqIiYKbkms0REVxToridyRsAYNzS
zVWhRPTcjt2hhp+FrfMx9xgEzarKgcd+pzOs1It/XCI8qPjPjqaEfIEe7GVuJr+J
Nxgwvq5yCEKlSuZtuXwdzDrhAMA0nlfVijO1UHqxyYp+VKRJPmp99VPquWqPfUQn
i2TgqKXoYmt97OT2DfJERS0OhiUngASFmQMm/bJq6nIVe5Gn7fXoCk8/I+IU4MbW
/exZHJkaxqLsAFKpvob0ekY5NUgtMheXlP1bRr2npTMnRDmu3Cw8yYdzTma/uoWg
aHXwxoDgIOTttWGI5GjCsAlrZmiOtm9EtDzTJtw=
-----END CERTIFICATE-----
